Certificate:
    Data:
        Version: 3 (0x2)
        Serial Number:
            ab:52:70:0c:fe:6a:54:27
        Signature Algorithm: sha256WithRSAEncryption
        Issuer: CN = Red Hat UEFI CA 2024, emailAddress = secalert@redhat.com
        Validity
            Not Before: Mar 27 19:08:30 2024 GMT
            Not After : Jan 18 19:08:30 2038 GMT
        Subject: CN = Red Hat UEFI CA 2024, emailAddress = secalert@redhat.com
        Subject Public Key Info:
            Public Key Algorithm: rsaEncryption
                Public-Key: (3072 bit)
                Modulus:
                    00:bd:5a:13:26:02:60:6d:6e:6d:ca:15:be:56:f5:
                    b7:a8:e9:3e:d2:b9:49:ae:86:76:e6:84:fb:59:95:
                    80:20:70:6f:34:54:4d:d1:cc:2d:66:ec:04:f3:bd:
                    9d:ca:cc:2f:cb:be:c6:c5:3b:9f:8f:cf:e2:27:59:
                    7e:64:c7:ab:0f:aa:93:e4:21:e7:5c:67:c2:18:c1:
                    75:b0:c8:fe:5a:83:af:bd:c2:87:cc:48:27:df:55:
                    4b:91:fc:15:48:76:2c:6d:f7:a1:e6:99:40:35:71:
                    81:59:9d:75:35:72:04:f6:2c:e1:1c:77:e5:17:a1:
                    99:48:f7:16:50:6a:4f:48:21:18:c6:93:1a:0f:75:
                    28:3e:cd:64:eb:66:36:1a:7b:99:0a:21:f0:1d:64:
                    2e:ce:76:60:af:78:7e:7e:80:f7:fe:43:1f:fc:c3:
                    6d:ec:2d:2f:19:72:e9:ad:5e:09:c6:04:99:63:5b:
                    8b:c2:5b:a9:0c:69:f2:8f:a1:71:dd:f9:d2:fc:b2:
                    29:52:80:fb:d7:df:10:37:fa:84:61:45:dd:f4:f3:
                    34:ec:5d:63:ad:7b:a7:d1:44:cc:d8:db:6a:19:77:
                    97:4e:9a:dc:70:0c:dd:a1:66:b5:84:5c:cb:02:23:
                    51:92:9f:b5:73:fb:a4:94:39:cd:c9:d4:93:f8:c3:
                    d2:84:14:f9:dd:d3:89:f1:27:af:0b:3d:7a:9c:b7:
                    61:19:7f:b7:57:8c:08:33:ea:da:31:7f:ff:d2:09:
                    e6:46:d3:93:fe:2b:56:62:b4:d5:18:9d:6f:dc:ca:
                    93:bc:4d:8b:05:d8:5c:9b:ea:91:e3:d8:60:f6:bb:
                    ef:28:f3:5f:8a:55:e8:55:70:88:93:1b:7b:d3:40:
                    ef:42:c3:0f:8b:a0:d5:76:eb:12:ae:1b:68:cc:e1:
                    e9:f6:1b:b5:a1:f6:5c:5b:66:19:f8:10:29:35:3b:
                    b2:62:17:b0:80:04:2a:d0:95:7e:fd:d3:ac:0d:28:
                    b2:58:20:f0:74:08:d4:d2:e1:95
                Exponent: 65537 (0x10001)
        X509v3 extensions:
            X509v3 Basic Constraints: critical
                CA:TRUE
            X509v3 Subject Key Identifier: 
                0E:C0:7D:62:68:FE:35:9C:E2:27:E2:41:68:AF:0E:DE:0C:7A:7A:C3
            X509v3 Authority Key Identifier: 
                0E:C0:7D:62:68:FE:35:9C:E2:27:E2:41:68:AF:0E:DE:0C:7A:7A:C3
            X509v3 Key Usage: critical
                Digital Signature, Certificate Sign, CRL Sign
    Signature Algorithm: sha256WithRSAEncryption
    Signature Value:
        a3:43:2c:b8:1e:92:53:4f:3a:5c:05:17:f0:37:a0:b7:5b:73:
        c6:36:99:f4:ef:d6:8b:8a:eb:41:12:c8:0b:2a:c9:83:fd:bc:
        4d:f2:37:53:ef:c4:43:d2:19:ef:2f:10:42:47:00:fa:2d:b5:
        6b:1e:a5:42:a1:c4:ca:7a:ea:52:fb:d9:6c:d2:f6:37:83:c4:
        e7:8a:36:07:88:00:09:d9:c4:eb:29:97:8e:ad:96:5c:3d:19:
        e6:d6:52:f8:fa:78:7c:57:49:d1:62:4c:e1:13:f5:d2:cc:a3:
        a1:9f:c2:c0:0d:2d:bd:5c:e2:2b:94:4a:fb:2d:0a:41:04:dd:
        27:48:77:34:33:ee:ca:b9:20:b7:5c:cd:2a:4d:6c:b2:08:72:
        09:1e:11:61:69:34:54:42:7b:d5:ce:fc:55:7b:ca:4a:52:20:
        43:72:4b:c4:0e:02:c5:72:df:d2:28:5f:99:72:88:fb:94:53:
        51:f9:c4:c3:81:a2:1e:dc:22:9f:18:05:02:50:5f:e7:a1:5d:
        70:b7:de:a8:96:7b:21:bf:85:28:21:4b:6f:e4:93:3e:56:c8:
        be:06:85:71:6f:85:f1:32:95:ea:29:a2:5a:92:22:d9:6b:13:
        69:d4:01:85:2d:9b:76:7c:63:9a:95:d6:99:32:fe:4a:c8:90:
        53:5a:ce:c3:35:23:d0:82:3c:ed:de:66:ee:15:bc:4d:03:09:
        77:bd:37:1c:2e:7d:85:1d:64:e9:06:02:14:35:ed:32:66:31:
        e1:d6:dd:ab:2c:e9:73:88:a1:9f:1a:71:12:11:b3:5f:b8:fa:
        db:5f:fc:d0:3b:38:5a:47:9c:80:25:bf:5f:5f:9c:b6:cf:ad:
        ed:04:a0:8f:7c:df:91:28:7d:9c:89:d4:0c:d1:b9:85:74:a9:
        77:38:33:de:c4:70:c9:5a:8a:d8:6b:08:e4:03:36:f1:04:eb:
        e3:3c:e6:cc:07:ee:6c:3e:da:88:d3:c7:05:12:2d:f8:17:f8:
        a2:75:e2:60:5c:ea
-----BEGIN CERTIFICATE-----
MIIEbDCCAtSgAwIBAgIJAKtScAz+alQnMA0GCSqGSIb3DQEBCwUAMEMxHTAbBgNV
BAMMFFJlZCBIYXQgVUVGSSBDQSAyMDI0MSIwIAYJKoZIhvcNAQkBFhNzZWNhbGVy
dEByZWRoYXQuY29tMB4XDTI0MDMyNzE5MDgzMFoXDTM4MDExODE5MDgzMFowQzEd
MBsGA1UEAwwUUmVkIEhhdCBVRUZJIENBIDIwMjQxIjAgBgkqhkiG9w0BCQEWE3Nl
Y2FsZXJ0QHJlZGhhdC5jb20wggGiMA0GCSqGSIb3DQEBAQUAA4IBjwAwggGKAoIB
gQC9WhMmAmBtbm3KFb5W9beo6T7SuUmuhnbmhPtZlYAgcG80VE3RzC1m7ATzvZ3K
zC/LvsbFO5+Pz+InWX5kx6sPqpPkIedcZ8IYwXWwyP5ag6+9wofMSCffVUuR/BVI
dixt96HmmUA1cYFZnXU1cgT2LOEcd+UXoZlI9xZQak9IIRjGkxoPdSg+zWTrZjYa
e5kKIfAdZC7OdmCveH5+gPf+Qx/8w23sLS8ZcumtXgnGBJljW4vCW6kMafKPoXHd
+dL8silSgPvX3xA3+oRhRd308zTsXWOte6fRRMzY22oZd5dOmtxwDN2hZrWEXMsC
I1GSn7Vz+6SUOc3J1JP4w9KEFPnd04nxJ68LPXqct2EZf7dXjAgz6toxf//SCeZG
05P+K1ZitNUYnW/cypO8TYsF2Fyb6pHj2GD2u+8o81+KVehVcIiTG3vTQO9Cww+L
oNV26xKuG2jM4en2G7Wh9lxbZhn4ECk1O7JiF7CABCrQlX7906wNKLJYIPB0CNTS
4ZUCAwEAAaNjMGEwDwYDVR0TAQH/BAUwAwEB/zAdBgNVHQ4EFgQUDsB9Ymj+NZzi
J+JBaK8O3gx6esMwHwYDVR0jBBgwFoAUDsB9Ymj+NZziJ+JBaK8O3gx6esMwDgYD
VR0PAQH/BAQDAgGGMA0GCSqGSIb3DQEBCwUAA4IBgQCjQyy4HpJTTzpcBRfwN6C3
W3PGNpn079aLiutBEsgLKsmD/bxN8jdT78RD0hnvLxBCRwD6LbVrHqVCocTKeupS
+9ls0vY3g8TnijYHiAAJ2cTrKZeOrZZcPRnm1lL4+nh8V0nRYkzhE/XSzKOhn8LA
DS29XOIrlEr7LQpBBN0nSHc0M+7KuSC3XM0qTWyyCHIJHhFhaTRUQnvVzvxVe8pK
UiBDckvEDgLFct/SKF+Zcoj7lFNR+cTDgaIe3CKfGAUCUF/noV1wt96olnshv4Uo
IUtv5JM+Vsi+BoVxb4XxMpXqKaJakiLZaxNp1AGFLZt2fGOaldaZMv5KyJBTWs7D
NSPQgjzt3mbuFbxNAwl3vTccLn2FHWTpBgIUNe0yZjHh1t2rLOlziKGfGnESEbNf
uPrbX/zQOzhaR5yAJb9fX5y2z63tBKCPfN+RKH2cidQM0bmFdKl3ODPexHDJWorY
awjkAzbxBOvjPObMB+5sPtqI08cFEi34F/iideJgXOo=
-----END CERTIFICATE-----
