Certificate:
    Data:
        Version: 3 (0x2)
        Serial Number:
            f7:18:65:cc:12:02:b7:d3
        Signature Algorithm: sha1WithRSAEncryption
        Issuer: C=US, ST=Massachusetts, L=Cambridge, O=Red Hat, Inc., CN=Red Hat Test Certifying CA
        Validity
            Not Before: Jul  9 19:12:43 2012 GMT
            Not After : Jul  9 19:12:43 2013 GMT
        Subject: C=US, ST=Massachusetts, L=Cambridge, O=Red Hat, Inc., CN=Red Hat Test Certifying CA
        Subject Public Key Info:
            Public Key Algorithm: rsaEncryption
                Public-Key: (2048 bit)
                Modulus:
                    00:af:22:14:5c:fd:30:81:64:c4:ef:bb:77:1c:5f:
                    22:ad:76:9c:fb:81:4d:cc:95:a2:03:06:ac:01:94:
                    fb:be:d4:76:84:f6:91:f5:88:23:9d:a4:6a:18:08:
                    e0:31:bf:36:8c:14:b1:2b:33:39:a1:ca:ef:c6:2e:
                    2d:14:26:62:98:7d:91:39:68:28:66:bc:2a:cc:2c:
                    f5:c3:62:42:e7:52:70:db:02:48:2f:01:d6:1a:69:
                    ae:0b:b9:fb:81:db:f1:34:60:9b:be:d3:e3:27:8b:
                    99:18:3b:48:bc:80:bb:05:c4:5f:b3:32:26:41:20:
                    5d:e8:74:41:79:44:78:b4:82:e7:4f:a6:8e:d0:c5:
                    3d:82:d5:c5:c7:85:d6:fd:22:d2:b4:27:77:b6:fa:
                    d5:c2:b1:e5:a5:37:59:73:d3:c7:92:96:9c:9d:ec:
                    56:0c:87:3c:d0:9e:e3:99:32:be:84:dd:a0:6b:68:
                    1b:31:d8:20:68:ab:16:49:b2:4a:8c:0f:6a:a9:48:
                    f8:59:f0:29:cb:8e:54:6f:0e:5c:91:e6:9d:ed:75:
                    78:d0:08:15:57:78:02:a8:97:1d:a7:e8:4a:ec:12:
                    d6:5b:7e:87:66:c4:4e:07:f2:b0:f7:56:a0:66:23:
                    19:f8:28:ed:e9:ad:ce:ab:83:a1:94:c6:1d:b8:b1:
                    c4:fb
                Exponent: 65537 (0x10001)
        X509v3 extensions:
            X509v3 Subject Key Identifier: 
                08:A0:EF:58:00:CB:02:FB:58:7C:12:B4:03:25:9C:7D:4E:F1:5D:1C
            X509v3 Authority Key Identifier: 
                08:A0:EF:58:00:CB:02:FB:58:7C:12:B4:03:25:9C:7D:4E:F1:5D:1C
            X509v3 Key Usage: 
                Digital Signature, Non Repudiation, Key Encipherment, Data Encipherment, Key Agreement, Certificate Sign, CRL Sign
            X509v3 Basic Constraints: critical
                CA:TRUE
            Netscape Comment: 
                Testing CA Certificate
    Signature Algorithm: sha1WithRSAEncryption
    Signature Value:
        84:18:14:c5:e0:6e:6f:e8:59:86:7b:14:39:fd:99:47:3e:21:
        9e:0e:e0:84:36:a2:1a:f9:d7:31:a4:91:67:e2:47:d8:65:3b:
        8c:3d:f3:d4:3e:6a:5f:1f:f4:75:cd:38:30:3f:65:39:0e:48:
        93:1d:a6:dd:23:a1:db:cc:4e:4f:a9:c4:c2:8e:4f:dc:da:5d:
        b3:ae:63:65:d8:7e:a2:a3:75:a9:7a:ce:2a:93:42:50:f4:e9:
        5a:33:33:bc:91:f9:48:5f:b7:c1:be:fd:84:c4:72:44:06:0e:
        c8:7f:5d:1e:f4:12:2e:86:fd:f4:fe:1b:48:c1:7e:da:c1:59:
        02:ce:4d:fc:54:3d:48:65:73:5c:6c:6f:95:25:fb:44:d0:3a:
        9b:c2:5d:08:06:bf:12:a7:27:47:88:42:cc:22:25:67:57:17:
        57:db:7f:df:78:f2:b2:84:ab:1d:bc:c9:50:40:0e:0c:7b:3f:
        1f:9f:0c:07:fa:31:00:ff:6f:59:74:f3:ab:f3:58:f5:85:75:
        61:7f:e8:b7:0a:bd:6a:85:4a:50:0f:f4:6a:d2:52:24:9b:ec:
        de:c2:b3:9f:56:43:00:fb:fb:ea:6b:b0:6a:6c:02:a0:26:3f:
        51:32:4b:12:70:df:b2:a4:ac:ce:14:bf:ab:d2:1b:f6:63:77:
        0d:76:9f:7f
-----BEGIN CERTIFICATE-----
MIID+DCCAuCgAwIBAgIJAPcYZcwSArfTMA0GCSqGSIb3DQEBBQUAMHYxCzAJBgNV
BAYTAlVTMRYwFAYDVQQIEw1NYXNzYWNodXNldHRzMRIwEAYDVQQHEwlDYW1icmlk
Z2UxFjAUBgNVBAoTDVJlZCBIYXQsIEluYy4xIzAhBgNVBAMTGlJlZCBIYXQgVGVz
dCBDZXJ0aWZ5aW5nIENBMB4XDTEyMDcwOTE5MTI0M1oXDTEzMDcwOTE5MTI0M1ow
djELMAkGA1UEBhMCVVMxFjAUBgNVBAgTDU1hc3NhY2h1c2V0dHMxEjAQBgNVBAcT
CUNhbWJyaWRnZTEWMBQGA1UEChMNUmVkIEhhdCwgSW5jLjEjMCEGA1UEAxMaUmVk
IEhhdCBUZXN0IENlcnRpZnlpbmcgQ0EwggEiMA0GCSqGSIb3DQEBAQUAA4IBDwAw
ggEKAoIBAQCvIhRc/TCBZMTvu3ccXyKtdpz7gU3MlaIDBqwBlPu+1HaE9pH1iCOd
pGoYCOAxvzaMFLErMzmhyu/GLi0UJmKYfZE5aChmvCrMLPXDYkLnUnDbAkgvAdYa
aa4LufuB2/E0YJu+0+Mni5kYO0i8gLsFxF+zMiZBIF3odEF5RHi0gudPpo7QxT2C
1cXHhdb9ItK0J3e2+tXCseWlN1lz08eSlpyd7FYMhzzQnuOZMr6E3aBraBsx2CBo
qxZJskqMD2qpSPhZ8CnLjlRvDlyR5p3tdXjQCBVXeAKolx2n6ErsEtZbfodmxE4H
8rD3VqBmIxn4KO3prc6rg6GUxh24scT7AgMBAAGjgYgwgYUwHQYDVR0OBBYEFAig
71gAywL7WHwStAMlnH1O8V0cMB8GA1UdIwQYMBaAFAig71gAywL7WHwStAMlnH1O
8V0cMAsGA1UdDwQEAwIB/jAPBgNVHRMBAf8EBTADAQH/MCUGCWCGSAGG+EIBDQQY
FhZUZXN0aW5nIENBIENlcnRpZmljYXRlMA0GCSqGSIb3DQEBBQUAA4IBAQCEGBTF
4G5v6FmGexQ5/ZlHPiGeDuCENqIa+dcxpJFn4kfYZTuMPfPUPmpfH/R1zTgwP2U5
DkiTHabdI6HbzE5PqcTCjk/c2l2zrmNl2H6io3Wpes4qk0JQ9OlaMzO8kflIX7fB
vv2ExHJEBg7If10e9BIuhv30/htIwX7awVkCzk38VD1IZXNcbG+VJftE0Dqbwl0I
Br8SpydHiELMIiVnVxdX23/fePKyhKsdvMlQQA4Mez8fnwwH+jEA/29ZdPOr81j1
hXVhf+i3Cr1qhUpQD/Rq0lIkm+zewrOfVkMA+/vqa7BqbAKgJj9RMksScN+ypKzO
FL+r0hv2Y3cNdp9/
-----END CERTIFICATE-----
