Certificate:
    Data:
        Version: 3 (0x2)
        Serial Number:
            bd:e7:1c:3d:4a:81:74:45
        Signature Algorithm: sha256WithRSAEncryption
        Issuer: CN = Red Hat Secure Boot CA 8, emailAddress = secalert@redhat.com
        Validity
            Not Before: Nov 30 19:34:39 2023 GMT
            Not After : Jan 18 19:34:39 2038 GMT
        Subject: CN = Red Hat Secure Boot CA 8, emailAddress = secalert@redhat.com
        Subject Public Key Info:
            Public Key Algorithm: rsaEncryption
                Public-Key: (4096 bit)
                Modulus:
                    00:ca:12:bb:42:d0:11:ab:16:b5:22:ef:1d:87:cf:
                    94:9b:a5:04:bb:a8:1c:15:5d:b9:ef:82:ed:33:61:
                    17:24:1f:bc:26:13:58:04:be:59:ee:bb:47:6f:71:
                    fc:bc:d3:08:96:8d:db:59:d1:f0:04:8e:0d:5f:79:
                    d0:58:f4:0e:dc:b6:a2:12:ad:77:7b:e5:d2:39:f3:
                    23:e5:1a:34:26:df:fe:ae:77:de:ac:59:83:4f:7e:
                    07:ed:c5:ab:6d:f9:32:35:6c:e6:1e:79:66:b8:b7:
                    77:de:55:7b:66:cf:1d:66:35:9e:73:ab:5b:fa:28:
                    dc:c8:31:13:36:6d:a0:4a:c7:97:00:95:56:d3:07:
                    5c:79:81:b5:43:e4:65:50:58:38:f2:ba:83:ca:31:
                    01:c2:1b:ee:f6:f5:fb:44:fa:7e:83:73:cb:b5:ad:
                    ee:15:12:9a:6a:c8:0e:01:5d:98:82:01:b2:30:76:
                    f7:7f:9a:23:c2:a7:07:5a:ae:81:72:f6:60:01:dd:
                    86:85:11:b6:5e:52:26:52:ca:7c:a7:c9:2c:dc:bb:
                    29:99:53:dc:12:83:42:eb:77:19:66:aa:47:89:b3:
                    38:55:ab:60:54:00:4c:64:61:04:f7:28:94:f0:e1:
                    39:58:c7:39:3f:33:de:29:63:be:fc:c9:74:25:bd:
                    75:77:6f:00:6b:3d:f6:0c:f4:57:32:b8:c0:bd:c1:
                    57:06:66:81:f8:5b:1f:31:85:8e:df:63:67:7a:be:
                    8c:77:5a:75:23:28:41:43:4d:f2:9a:6b:c8:73:da:
                    11:ce:60:41:a3:bb:76:7b:7b:59:ff:45:68:ae:7c:
                    fa:bf:96:70:06:48:7f:bf:c0:9f:bb:ae:89:65:b3:
                    ae:fe:9b:8e:38:e0:e1:4f:ad:32:23:35:b1:0f:4f:
                    f7:a4:7e:19:d9:46:f2:80:c7:2e:82:26:31:df:8f:
                    f5:ee:5f:18:70:f5:68:ec:c2:07:ce:9f:03:a3:4d:
                    54:63:a8:b3:6c:7d:3b:e2:03:32:ed:de:29:e3:7d:
                    25:2b:14:0f:0a:a7:e8:cc:f7:09:12:58:83:46:12:
                    3a:b5:65:01:01:dd:c6:ca:e0:73:be:00:6f:bb:3f:
                    7b:25:b7:a9:a5:31:47:fd:3f:e0:05:07:9b:93:6c:
                    ad:44:4f:c9:a9:fb:a9:c7:dc:bb:2d:a5:5f:15:72:
                    63:cf:a7:77:01:cb:de:f1:6f:a3:cb:2d:bf:81:51:
                    6a:9d:ab:b5:cb:0f:fe:6f:c9:20:17:2c:92:76:ba:
                    67:78:15:67:fe:69:e2:50:ed:f4:ad:72:1c:b8:e5:
                    91:1f:a2:2a:79:a5:12:5d:98:d5:ac:36:57:76:8c:
                    92:18:fd
                Exponent: 65537 (0x10001)
        X509v3 extensions:
            X509v3 Basic Constraints: critical
                CA:TRUE
            X509v3 Subject Key Identifier: 
                E1:C6:C5:80:AA:1E:21:D5:85:AA:D9:BF:20:F3:92:9E:5E:C1:F0:8B
            X509v3 Authority Key Identifier: 
                E1:C6:C5:80:AA:1E:21:D5:85:AA:D9:BF:20:F3:92:9E:5E:C1:F0:8B
            X509v3 Key Usage: critical
                Digital Signature, Certificate Sign, CRL Sign
    Signature Algorithm: sha256WithRSAEncryption
    Signature Value:
        a7:9f:92:d4:01:cd:ac:73:d3:f8:30:92:15:7e:ab:b5:dc:15:
        92:73:37:7a:7a:ce:b4:87:c5:e5:68:b0:76:5f:47:8f:72:9b:
        5c:8e:5f:03:b4:d4:a6:79:04:fc:b1:25:60:3f:02:e8:68:18:
        51:f6:41:f8:20:36:e7:b5:51:a0:c0:44:93:4a:36:94:88:63:
        2b:7e:a5:ee:00:98:09:3f:35:fc:7f:73:6a:a2:c4:05:39:0c:
        e0:a6:88:c6:44:b7:93:25:8c:d2:dc:08:6f:32:3d:22:ee:66:
        45:64:55:e4:67:93:14:75:be:c0:38:3d:b7:0e:ae:41:33:c5:
        31:40:52:03:49:80:06:54:a0:ca:cf:42:70:18:8b:9c:2a:59:
        0f:8f:4f:d2:9e:17:75:e0:6f:a2:5f:bc:7a:9c:af:0a:c0:12:
        64:92:a0:8d:c9:b1:2a:a3:77:4d:97:07:ba:97:36:9b:14:f2:
        81:3f:43:5c:ca:06:bd:14:77:83:43:6a:3f:88:26:c1:2b:c1:
        78:50:57:0a:74:5f:1e:e7:3c:d2:70:5c:8b:2d:21:21:46:ed:
        ea:55:17:e3:4f:dc:81:cb:4f:fa:5c:41:c4:64:5e:ce:e1:fe:
        58:b0:37:60:77:49:0d:a6:5c:14:c3:24:b9:2b:f1:18:e7:8d:
        05:f1:fb:9f:3a:7c:64:32:47:c8:fa:ba:5f:25:65:c6:2c:f3:
        4c:4b:e3:a8:41:d7:9a:5c:f9:8a:80:31:e8:ed:c9:3e:da:0d:
        af:f0:6b:21:62:d2:63:c0:40:93:23:58:76:2f:dd:95:f7:38:
        87:e1:89:b1:6e:e2:b8:34:07:4a:59:fa:28:ed:53:fc:6f:82:
        33:00:62:c0:e3:e2:1f:5c:45:56:80:34:c1:ce:71:cd:fb:ed:
        49:be:0a:fa:c0:dc:d4:99:46:4b:c8:b1:0e:90:57:23:83:e5:
        f7:51:26:25:33:4f:1e:95:6b:de:73:ae:7b:a1:ff:c2:17:04:
        f5:df:bd:72:ac:07:81:30:e9:77:a1:e5:20:a2:6c:d6:88:37:
        a5:4a:f7:87:9c:bd:28:c0:6c:5a:77:53:c8:64:d3:f3:ce:8f:
        9e:d7:83:85:23:b5:bf:95:88:be:74:75:fa:2e:e9:20:d5:57:
        e1:86:ee:cb:81:af:06:c9:34:d0:18:a2:53:22:43:9b:41:5e:
        fa:8c:90:ac:68:c9:38:d0:53:08:46:a3:18:f3:0b:16:9e:fd:
        89:31:8a:8e:b7:44:71:62:85:81:54:f9:72:03:df:33:87:ff:
        dd:82:fe:bc:e9:7f:5a:d1:1e:4f:16:67:58:48:4e:15:7b:af:
        7d:d6:8c:00:b7:08:66:69
-----BEGIN CERTIFICATE-----
MIIFdDCCA1ygAwIBAgIJAL3nHD1KgXRFMA0GCSqGSIb3DQEBCwUAMEcxITAfBgNV
BAMMGFJlZCBIYXQgU2VjdXJlIEJvb3QgQ0EgODEiMCAGCSqGSIb3DQEJARYTc2Vj
YWxlcnRAcmVkaGF0LmNvbTAeFw0yMzExMzAxOTM0MzlaFw0zODAxMTgxOTM0Mzla
MEcxITAfBgNVBAMMGFJlZCBIYXQgU2VjdXJlIEJvb3QgQ0EgODEiMCAGCSqGSIb3
DQEJARYTc2VjYWxlcnRAcmVkaGF0LmNvbTCCAiIwDQYJKoZIhvcNAQEBBQADggIP
ADCCAgoCggIBAMoSu0LQEasWtSLvHYfPlJulBLuoHBVdue+C7TNhFyQfvCYTWAS+
We67R29x/LzTCJaN21nR8ASODV950Fj0Dty2ohKtd3vl0jnzI+UaNCbf/q533qxZ
g09+B+3Fq235MjVs5h55Zri3d95Ve2bPHWY1nnOrW/oo3MgxEzZtoErHlwCVVtMH
XHmBtUPkZVBYOPK6g8oxAcIb7vb1+0T6foNzy7Wt7hUSmmrIDgFdmIIBsjB293+a
I8KnB1qugXL2YAHdhoURtl5SJlLKfKfJLNy7KZlT3BKDQut3GWaqR4mzOFWrYFQA
TGRhBPcolPDhOVjHOT8z3iljvvzJdCW9dXdvAGs99gz0VzK4wL3BVwZmgfhbHzGF
jt9jZ3q+jHdadSMoQUNN8ppryHPaEc5gQaO7dnt7Wf9FaK58+r+WcAZIf7/An7uu
iWWzrv6bjjjg4U+tMiM1sQ9P96R+GdlG8oDHLoImMd+P9e5fGHD1aOzCB86fA6NN
VGOos2x9O+IDMu3eKeN9JSsUDwqn6Mz3CRJYg0YSOrVlAQHdxsrgc74Ab7s/eyW3
qaUxR/0/4AUHm5NsrURPyan7qcfcuy2lXxVyY8+ndwHL3vFvo8stv4FRap2rtcsP
/m/JIBcskna6Z3gVZ/5p4lDt9K1yHLjlkR+iKnmlEl2Y1aw2V3aMkhj9AgMBAAGj
YzBhMA8GA1UdEwEB/wQFMAMBAf8wHQYDVR0OBBYEFOHGxYCqHiHVharZvyDzkp5e
wfCLMB8GA1UdIwQYMBaAFOHGxYCqHiHVharZvyDzkp5ewfCLMA4GA1UdDwEB/wQE
AwIBhjANBgkqhkiG9w0BAQsFAAOCAgEAp5+S1AHNrHPT+DCSFX6rtdwVknM3enrO
tIfF5Wiwdl9Hj3KbXI5fA7TUpnkE/LElYD8C6GgYUfZB+CA257VRoMBEk0o2lIhj
K36l7gCYCT81/H9zaqLEBTkM4KaIxkS3kyWM0twIbzI9Iu5mRWRV5GeTFHW+wDg9
tw6uQTPFMUBSA0mABlSgys9CcBiLnCpZD49P0p4XdeBvol+8epyvCsASZJKgjcmx
KqN3TZcHupc2mxTygT9DXMoGvRR3g0NqP4gmwSvBeFBXCnRfHuc80nBciy0hIUbt
6lUX40/cgctP+lxBxGRezuH+WLA3YHdJDaZcFMMkuSvxGOeNBfH7nzp8ZDJHyPq6
XyVlxizzTEvjqEHXmlz5ioAx6O3JPtoNr/BrIWLSY8BAkyNYdi/dlfc4h+GJsW7i
uDQHSln6KO1T/G+CMwBiwOPiH1xFVoA0wc5xzfvtSb4K+sDc1JlGS8ixDpBXI4Pl
91EmJTNPHpVr3nOue6H/whcE9d+9cqwHgTDpd6HlIKJs1og3pUr3h5y9KMBsWndT
yGTT886PnteDhSO1v5WIvnR1+i7pINVX4Ybuy4GvBsk00BiiUyJDm0Fe+oyQrGjJ
ONBTCEajGPMLFp79iTGKjrdEcWKFgVT5cgPfM4f/3YL+vOl/WtEeTxZnWEhOFXuv
fdaMALcIZmk=
-----END CERTIFICATE-----
