Certificate:
    Data:
        Version: 3 (0x2)
        Serial Number:
            33:00:00:00:16:36:bf:36:89:9f:15:75:cc:00:00:00:00:00:16
        Signature Algorithm: sha256WithRSAEncryption
        Issuer: C = US, O = Microsoft Corporation, CN = Microsoft RSA Devices Root CA 2021
        Validity
            Not Before: Jun 13 19:21:47 2023 GMT
            Not After : Jun 13 19:31:47 2038 GMT
        Subject: C = US, O = Microsoft Corporation, CN = Microsoft UEFI CA 2023
        Subject Public Key Info:
            Public Key Algorithm: rsaEncryption
                Public-Key: (2048 bit)
                Modulus:
                    00:bd:22:2a:ae:ef:1a:31:85:13:78:51:a7:9b:fd:
                    fc:78:d1:63:b8:1a:9b:63:f5:12:06:db:4b:41:35:
                    6a:6f:ab:f5:6a:04:cc:97:cf:bb:d4:08:09:1a:61:
                    3a:0d:e6:b3:a0:46:ff:09:ad:de:80:24:dc:12:80:
                    f2:5f:d9:16:ed:e2:42:9d:cd:2f:4d:61:02:61:8a:
                    1c:4b:1d:18:62:39:86:97:71:ad:3e:7f:5d:71:13:
                    4b:e9:2a:00:c1:be:d5:b7:00:9f:5e:65:b2:2c:1a:
                    ff:74:ed:ea:83:d2:39:89:33:35:73:7d:a0:a2:fa:
                    40:e4:66:50:58:aa:fc:87:e8:5c:20:83:34:ec:ab:
                    e2:0b:c5:5f:3e:ff:48:2b:11:91:26:ef:18:6e:57:
                    c5:9f:18:73:99:ef:e1:6a:74:2b:bb:2f:7f:50:8e:
                    1d:da:3d:76:b6:04:e5:cc:2e:10:c7:83:1b:83:a3:
                    e4:a5:13:13:71:6e:33:78:a3:a8:3c:ec:48:26:5e:
                    c7:c6:5e:0d:87:9a:aa:cc:55:34:81:ad:9d:90:f5:
                    e6:96:63:a6:e8:07:20:17:c8:93:1e:d2:ae:a4:dc:
                    ae:7d:59:bf:88:5e:62:0c:ae:5b:f2:29:40:56:1d:
                    26:40:de:85:a6:ad:56:d1:cf:55:47:76:5f:9c:39:
                    db:03
                Exponent: 65537 (0x10001)
        X509v3 extensions:
            X509v3 Key Usage: critical
                Digital Signature, Certificate Sign, CRL Sign
            1.3.6.1.4.1.311.21.1: 
                ...
            X509v3 Subject Key Identifier: 
                81:AA:6B:32:44:C9:35:BC:E0:D6:62:8A:F3:98:27:42:1E:32:49:7D
            1.3.6.1.4.1.311.20.2: 
                .
.S.u.b.C.A
            X509v3 Basic Constraints: critical
                CA:TRUE
            X509v3 Authority Key Identifier: 
                84:44:86:06:00:98:3F:2C:AA:B3:C5:89:F3:AC:2E:C9:E6:9D:09:03
            X509v3 CRL Distribution Points: 
                Full Name:
                  URI:http://www.microsoft.com/pkiops/crl/Microsoft%20RSA%20Devices%20Root%20CA%202021.crl
            Authority Information Access: 
                CA Issuers - URI:http://www.microsoft.com/pkiops/certs/Microsoft%20RSA%20Devices%20Root%20CA%202021.crt
    Signature Algorithm: sha256WithRSAEncryption
    Signature Value:
        07:60:13:2a:53:87:12:0f:1a:f3:5a:14:95:17:e5:d8:d7:95:
        54:9b:8b:0e:dd:91:a5:ed:c7:5d:47:50:93:45:b7:95:88:5f:
        17:19:41:63:76:b5:82:b0:a8:c5:9d:99:15:36:89:49:be:12:
        c2:66:fb:83:0c:b0:81:ce:e5:a4:ab:c2:a0:9a:eb:f5:07:3c:
        fe:21:f8:9a:dc:19:21:0c:9e:24:2c:d1:5c:a2:16:0a:4b:eb:
        ec:48:9c:b1:5b:74:db:01:64:c2:e3:80:6a:ab:1a:cd:77:1b:
        6a:39:9a:b7:ba:70:44:ff:67:94:c5:81:06:f0:cb:81:04:93:
        27:21:99:bd:87:88:14:9c:22:71:0e:0b:2f:5c:be:b8:90:54:
        7c:c0:1e:bc:2b:9b:a3:56:17:4b:97:e7:e3:7f:13:34:fa:b0:
        34:6b:9b:f6:b2:2d:f7:d8:7b:d8:20:d3:5c:a7:95:4c:4f:2a:
        f9:e7:1e:68:af:fc:6c:8f:c8:86:3d:9f:c8:d1:ef:4d:1a:c8:
        d1:f6:fd:2d:7c:e3:e8:41:c1:ea:27:c1:fb:8e:25:86:5a:89:
        a6:10:be:ce:e3:8f:a5:7b:c4:1a:a0:e8:75:90:fd:21:b0:c1:
        a3:c5:16:23:5e:3c:ce:2f:fe:8c:98:bf:08:5c:f6:b9:c5:b2:
        3c:b6:cc:c8:ec:7f:d2:77:74:cb:ed:f3:96:c9:8b:8d:1c:2a:
        89:0f:a3:8f:bd:ce:2a:85:46:9a:23:a2:8f:42:c0:99:d6:ea:
        85:1f:61:19:be:16:35:b7:75:a0:95:80:65:06:87:d4:0b:35:
        c8:c4:aa:0e:ce:a2:0a:63:60:ca:4b:2b:5c:27:04:82:af:3e:
        58:83:7a:5a:d8:67:3f:10:53:f5:0c:16:f7:26:4b:8a:80:b9:
        c5:1f:a0:de:d8:d3:61:44:14:45:a7:f5:ab:9a:88:17:fd:b7:
        94:54:02:8b:e4:b7:53:a1:3e:8d:9e:50:82:a8:00:e0:78:94:
        1b:be:b3:c4:30:1f:b2:0e:db:f0:46:90:c1:e6:57:fe:7c:c1:
        70:b2:1c:4b:64:d9:10:03:1b:34:fb:66:cf:82:6e:9e:40:a8:
        11:37:f2:65:8b:21:09:af:3c:93:62:3d:f3:bc:83:dd:3f:55:
        90:15:d2:31:af:11:e7:f8:ca:a0:82:e1:b9:cf:b3:57:93:c7:
        55:37:ac:7f:41:bf:1f:96:3c:f3:26:94:f9:d8:d2:55:24:8a:
        8a:b6:41:f0:e0:16:c0:23:92:8c:71:0a:4c:6a:0d:19:55:f7:
        3a:9c:92:21:96:a1:d5:f8:0a:8c:9d:bf:c9:eb:ca:88:42:fc:
        4b:b4:ef:ff:27:30:21:61
-----BEGIN CERTIFICATE-----
MIIFpDCCA4ygAwIBAgITMwAAABY2vzaJnxV1zAAAAAAAFjANBgkqhkiG9w0BAQsF
ADBaMQswCQYDVQQGEwJVUzEeMBwGA1UEChMVTWljcm9zb2Z0IENvcnBvcmF0aW9u
MSswKQYDVQQDEyJNaWNyb3NvZnQgUlNBIERldmljZXMgUm9vdCBDQSAyMDIxMB4X
DTIzMDYxMzE5MjE0N1oXDTM4MDYxMzE5MzE0N1owTjELMAkGA1UEBhMCVVMxHjAc
BgNVBAoTFU1pY3Jvc29mdCBDb3Jwb3JhdGlvbjEfMB0GA1UEAxMWTWljcm9zb2Z0
IFVFRkkgQ0EgMjAyMzCCASIwDQYJKoZIhvcNAQEBBQADggEPADCCAQoCggEBAL0i
Kq7vGjGFE3hRp5v9/HjRY7gam2P1EgbbS0E1am+r9WoEzJfPu9QICRphOg3ms6BG
/wmt3oAk3BKA8l/ZFu3iQp3NL01hAmGKHEsdGGI5hpdxrT5/XXETS+kqAMG+1bcA
n15lsiwa/3Tt6oPSOYkzNXN9oKL6QORmUFiq/IfoXCCDNOyr4gvFXz7/SCsRkSbv
GG5XxZ8Yc5nv4Wp0K7svf1COHdo9drYE5cwuEMeDG4Oj5KUTE3FuM3ijqDzsSCZe
x8ZeDYeaqsxVNIGtnZD15pZjpugHIBfIkx7SrqTcrn1Zv4heYgyuW/IpQFYdJkDe
haatVtHPVUd2X5w52wMCAwEAAaOCAW0wggFpMA4GA1UdDwEB/wQEAwIBhjAQBgkr
BgEEAYI3FQEEAwIBADAdBgNVHQ4EFgQUgaprMkTJNbzg1mKK85gnQh4ySX0wGQYJ
KwYBBAGCNxQCBAweCgBTAHUAYgBDAEEwDwYDVR0TAQH/BAUwAwEB/zAfBgNVHSME
GDAWgBSERIYGAJg/LKqzxYnzrC7J5p0JAzBlBgNVHR8EXjBcMFqgWKBWhlRodHRw
Oi8vd3d3Lm1pY3Jvc29mdC5jb20vcGtpb3BzL2NybC9NaWNyb3NvZnQlMjBSU0El
MjBEZXZpY2VzJTIwUm9vdCUyMENBJTIwMjAyMS5jcmwwcgYIKwYBBQUHAQEEZjBk
MGIGCCsGAQUFBzAChlZodHRwOi8vd3d3Lm1pY3Jvc29mdC5jb20vcGtpb3BzL2Nl
cnRzL01pY3Jvc29mdCUyMFJTQSUyMERldmljZXMlMjBSb290JTIwQ0ElMjAyMDIx
LmNydDANBgkqhkiG9w0BAQsFAAOCAgEAB2ATKlOHEg8a81oUlRfl2NeVVJuLDt2R
pe3HXUdQk0W3lYhfFxlBY3a1grCoxZ2ZFTaJSb4Swmb7gwywgc7lpKvCoJrr9Qc8
/iH4mtwZIQyeJCzRXKIWCkvr7EicsVt02wFkwuOAaqsazXcbajmat7pwRP9nlMWB
BvDLgQSTJyGZvYeIFJwicQ4LL1y+uJBUfMAevCubo1YXS5fn438TNPqwNGub9rIt
99h72CDTXKeVTE8q+eceaK/8bI/Ihj2fyNHvTRrI0fb9LXzj6EHB6ifB+44lhlqJ
phC+zuOPpXvEGqDodZD9IbDBo8UWI148zi/+jJi/CFz2ucWyPLbMyOx/0nd0y+3z
lsmLjRwqiQ+jj73OKoVGmiOij0LAmdbqhR9hGb4WNbd1oJWAZQaH1As1yMSqDs6i
CmNgyksrXCcEgq8+WIN6WthnPxBT9QwW9yZLioC5xR+g3tjTYUQURaf1q5qIF/23
lFQCi+S3U6E+jZ5QgqgA4HiUG76zxDAfsg7b8EaQweZX/nzBcLIcS2TZEAMbNPtm
z4JunkCoETfyZYshCa88k2I987yD3T9VkBXSMa8R5/jKoILhuc+zV5PHVTesf0G/
H5Y88yaU+djSVSSKirZB8OAWwCOSjHEKTGoNGVX3OpySIZah1fgKjJ2/yevKiEL8
S7Tv/ycwIWE=
-----END CERTIFICATE-----
