Certificate:
    Data:
        Version: 3 (0x2)
        Serial Number:
            33:00:00:00:17:b3:ec:4d:8f:01:e2:70:05:00:00:00:00:00:17
        Signature Algorithm: sha256WithRSAEncryption
        Issuer: C=US, O=Microsoft Corporation, CN=Microsoft RSA Devices Root CA 2021
        Validity
            Not Before: Oct 26 19:02:20 2023 GMT
            Not After : Oct 26 19:12:20 2038 GMT
        Subject: C=US, O=Microsoft Corporation, CN=Microsoft Option ROM UEFI CA 2023
        Subject Public Key Info:
            Public Key Algorithm: rsaEncryption
                Public-Key: (2048 bit)
                Modulus:
                    00:d3:0b:fe:89:cd:cd:b6:ee:dc:e5:1a:8d:dc:ca:
                    21:1a:0f:22:2f:0b:b5:32:84:35:c0:be:6f:70:93:
                    55:b4:47:cc:49:03:c2:fe:cf:ba:32:65:64:b7:35:
                    bd:04:3b:44:64:2f:a0:f2:dd:e1:5d:ba:e7:bd:39:
                    9a:bd:cb:4b:e1:83:aa:1b:e8:6f:4e:4c:91:52:43:
                    a5:c4:50:55:68:f5:da:ac:48:a2:9c:ec:35:a7:04:
                    56:68:19:e2:b1:62:d4:92:f4:85:3f:34:a1:15:67:
                    87:21:6e:1f:c9:d8:35:32:b8:3d:cb:58:ca:29:43:
                    54:4a:7e:8b:55:7b:23:7a:3a:b6:9d:43:07:04:6b:
                    9a:6b:f4:f0:20:ff:fa:a6:df:a2:9e:49:e8:55:c5:
                    75:88:44:ac:a4:41:3a:03:7c:bb:e9:93:e4:6c:f1:
                    ed:79:26:c7:8b:32:f7:59:49:25:31:00:67:18:0c:
                    67:fb:40:c5:5d:76:3d:09:87:c2:2d:8c:5f:2b:5a:
                    1e:01:0f:33:af:65:08:90:4f:fc:64:5b:9c:a3:5c:
                    d6:53:1b:51:01:9f:98:cf:c4:53:c5:b1:df:b3:68:
                    6f:45:4b:c8:45:85:c8:1d:b8:9e:d1:77:71:a0:d5:
                    a2:77:87:ec:67:2e:b9:87:06:46:dd:41:43:40:6a:
                    5f:2f
                Exponent: 65537 (0x10001)
        X509v3 extensions:
            X509v3 Key Usage: critical
                Digital Signature, Certificate Sign, CRL Sign
            1.3.6.1.4.1.311.21.1: 
                ...
            X509v3 Subject Key Identifier: 
                51:4F:BF:93:7F:A4:6F:B5:7B:F0:7A:F8:BE:D8:4B:3B:86:4B:17:11
            1.3.6.1.4.1.311.20.2: 
                .
.S.u.b.C.A
            X509v3 Basic Constraints: critical
                CA:TRUE
            X509v3 Authority Key Identifier: 
                84:44:86:06:00:98:3F:2C:AA:B3:C5:89:F3:AC:2E:C9:E6:9D:09:03
            X509v3 CRL Distribution Points: 
                Full Name:
                  URI:http://www.microsoft.com/pkiops/crl/Microsoft%20RSA%20Devices%20Root%20CA%202021.crl
            Authority Information Access: 
                CA Issuers - URI:http://www.microsoft.com/pkiops/certs/Microsoft%20RSA%20Devices%20Root%20CA%202021.crt
    Signature Algorithm: sha256WithRSAEncryption
    Signature Value:
        4a:4b:80:fc:71:b1:87:dd:06:8b:24:10:d1:76:f8:10:e4:65:
        34:a1:bb:81:08:7d:70:d4:15:24:f9:90:3b:48:6f:6e:4e:23:
        fe:85:53:ec:a2:99:1f:89:e4:34:be:d0:98:af:f1:f8:2d:f3:
        47:d1:b5:32:64:9e:de:72:c0:17:7e:81:20:7a:c1:5f:91:f5:
        4e:3a:a6:7b:69:d9:d0:d6:f0:fa:80:63:c5:c0:44:67:d3:8b:
        27:61:c1:e5:dc:51:99:6e:23:c9:29:18:fe:35:bd:45:21:ac:
        0f:f9:60:e2:0f:d1:5f:70:0f:92:2b:58:4e:cf:ac:64:2f:09:
        73:ed:50:08:c8:e1:85:73:40:2c:31:a9:b4:b6:23:4b:c0:19:
        3b:fd:15:f8:d3:cb:74:54:cd:da:bb:7d:04:85:9f:70:15:75:
        f9:b7:f4:61:4b:fe:e4:9f:45:0e:f5:82:e9:c5:f3:78:bb:aa:
        6a:e1:f7:bb:85:92:2b:af:4b:b5:27:4e:9a:c9:29:6f:0e:c8:
        d2:64:63:9b:5d:14:06:cc:78:7f:e4:12:dd:96:e3:9c:04:42:
        ec:17:fa:92:21:a7:de:f5:69:8f:20:b2:64:f3:3f:15:a3:51:
        af:27:6f:b7:62:57:af:74:17:ec:ab:b1:ee:a8:50:ef:af:83:
        82:ab:61:04:79:3f:49:8c:40:56:c0:3c:af:fb:2a:5a:19:1e:
        aa:e6:2e:67:24:21:ac:33:f0:d7:4a:8b:0a:24:30:10:a6:52:
        3e:1d:c8:fc:91:9c:87:1b:fa:86:e1:9e:6b:e5:09:61:75:a8:
        a3:39:5f:e2:9f:6c:0e:85:21:e6:bd:76:a5:ea:45:83:68:1e:
        2f:36:bf:e0:68:8a:42:ce:1f:b8:8d:e1:60:e6:93:8a:ee:ba:
        4a:ad:b3:49:4c:ee:a3:03:c9:a7:a2:86:71:9c:81:01:67:69:
        0f:de:80:55:d6:c0:de:72:85:c0:46:60:f0:ce:60:2a:88:08:
        8d:9c:30:eb:a9:8b:40:f3:61:25:09:e1:e1:82:32:04:a5:29:
        f8:59:ec:26:b6:c8:d7:23:f0:0b:d3:6c:63:6a:da:2f:d2:d3:
        a5:25:9a:9a:5e:a5:fd:02:a5:ec:a2:90:81:68:3e:3d:45:8e:
        7c:05:b2:2e:ea:99:01:45:fd:09:30:94:26:d7:4a:2c:fe:7d:
        82:44:33:43:55:cb:5a:43:d2:92:92:fe:4e:47:c6:49:3f:35:
        1b:21:9c:6a:da:82:fc:64:37:fb:27:ea:f4:30:df:65:ec:d0:
        fc:50:01:38:6a:ec:dc:51:f6:f5:ee:9b:26:cc:ee:6d:fe:2f:
        56:0e:3a:e8:38:22:8e:aa
-----BEGIN CERTIFICATE-----
MIIFrzCCA5egAwIBAgITMwAAABez7E2PAeJwBQAAAAAAFzANBgkqhkiG9w0BAQsF
ADBaMQswCQYDVQQGEwJVUzEeMBwGA1UEChMVTWljcm9zb2Z0IENvcnBvcmF0aW9u
MSswKQYDVQQDEyJNaWNyb3NvZnQgUlNBIERldmljZXMgUm9vdCBDQSAyMDIxMB4X
DTIzMTAyNjE5MDIyMFoXDTM4MTAyNjE5MTIyMFowWTELMAkGA1UEBhMCVVMxHjAc
BgNVBAoTFU1pY3Jvc29mdCBDb3Jwb3JhdGlvbjEqMCgGA1UEAxMhTWljcm9zb2Z0
IE9wdGlvbiBST00gVUVGSSBDQSAyMDIzMIIBIjANBgkqhkiG9w0BAQEFAAOCAQ8A
MIIBCgKCAQEA0wv+ic3Ntu7c5RqN3MohGg8iLwu1MoQ1wL5vcJNVtEfMSQPC/s+6
MmVktzW9BDtEZC+g8t3hXbrnvTmavctL4YOqG+hvTkyRUkOlxFBVaPXarEiinOw1
pwRWaBnisWLUkvSFPzShFWeHIW4fydg1Mrg9y1jKKUNUSn6LVXsjejq2nUMHBGua
a/TwIP/6pt+inknoVcV1iESspEE6A3y76ZPkbPHteSbHizL3WUklMQBnGAxn+0DF
XXY9CYfCLYxfK1oeAQ8zr2UIkE/8ZFuco1zWUxtRAZ+Yz8RTxbHfs2hvRUvIRYXI
Hbie0XdxoNWid4fsZy65hwZG3UFDQGpfLwIDAQABo4IBbTCCAWkwDgYDVR0PAQH/
BAQDAgGGMBAGCSsGAQQBgjcVAQQDAgEAMB0GA1UdDgQWBBRRT7+Tf6RvtXvwevi+
2Es7hksXETAZBgkrBgEEAYI3FAIEDB4KAFMAdQBiAEMAQTAPBgNVHRMBAf8EBTAD
AQH/MB8GA1UdIwQYMBaAFIREhgYAmD8sqrPFifOsLsnmnQkDMGUGA1UdHwReMFww
WqBYoFaGVGh0dHA6Ly93d3cubWljcm9zb2Z0LmNvbS9wa2lvcHMvY3JsL01pY3Jv
c29mdCUyMFJTQSUyMERldmljZXMlMjBSb290JTIwQ0ElMjAyMDIxLmNybDByBggr
BgEFBQcBAQRmMGQwYgYIKwYBBQUHMAKGVmh0dHA6Ly93d3cubWljcm9zb2Z0LmNv
bS9wa2lvcHMvY2VydHMvTWljcm9zb2Z0JTIwUlNBJTIwRGV2aWNlcyUyMFJvb3Ql
MjBDQSUyMDIwMjEuY3J0MA0GCSqGSIb3DQEBCwUAA4ICAQBKS4D8cbGH3QaLJBDR
dvgQ5GU0obuBCH1w1BUk+ZA7SG9uTiP+hVPsopkfieQ0vtCYr/H4LfNH0bUyZJ7e
csAXfoEgesFfkfVOOqZ7adnQ1vD6gGPFwERn04snYcHl3FGZbiPJKRj+Nb1FIawP
+WDiD9FfcA+SK1hOz6xkLwlz7VAIyOGFc0AsMam0tiNLwBk7/RX408t0VM3au30E
hZ9wFXX5t/RhS/7kn0UO9YLpxfN4u6pq4fe7hZIrr0u1J06aySlvDsjSZGObXRQG
zHh/5BLdluOcBELsF/qSIafe9WmPILJk8z8Vo1GvJ2+3YlevdBfsq7HuqFDvr4OC
q2EEeT9JjEBWwDyv+ypaGR6q5i5nJCGsM/DXSosKJDAQplI+Hcj8kZyHG/qG4Z5r
5QlhdaijOV/in2wOhSHmvXal6kWDaB4vNr/gaIpCzh+4jeFg5pOK7rpKrbNJTO6j
A8mnooZxnIEBZ2kP3oBV1sDecoXARmDwzmAqiAiNnDDrqYtA82ElCeHhgjIEpSn4
WewmtsjXI/AL02xjatov0tOlJZqaXqX9AqXsopCBaD49RY58BbIu6pkBRf0JMJQm
10os/n2CRDNDVctaQ9KSkv5OR8ZJPzUbIZxq2oL8ZDf7J+r0MN9l7ND8UAE4auzc
Ufb17psmzO5t/i9WDjroOCKOqg==
-----END CERTIFICATE-----
